target datalayout = "e-m:e-p270:32:32-p271:32:32-p272:64:64-i64:64-i128:128-f80:128-n8:16:32:64-S128"
target triple = "x86_64-pc-linux-gnu"

%struct.GenContext_ = type { i8, ptr, ptr, ptr, ptr, ptr, ptr, ptr, ptr, ptr, ptr, ptr, ptr, ptr, ptr, ptr, ptr, ptr, ptr, ptr, ptr, ptr, ptr, ptr, ptr, ptr, ptr, ptr, ptr, ptr, ptr, ptr, ptr, %struct.anon.85, i32, i32, %struct.DebugContext, ptr, ptr, ptr, %struct.BEValue, i8, %union.SourceSpan, ptr, ptr, ptr, ptr }
%struct.anon.85 = type { ptr, ptr, ptr }
%struct.DebugContext = type { i16, ptr, ptr, %struct.DebugFile_, ptr, ptr, ptr, ptr }
%struct.DebugFile_ = type { i16, ptr }
%struct.BEValue = type { i8, i32, ptr, ptr, ptr }
%union.SourceSpan = type { i64 }
%struct.Type_ = type { i32, ptr, ptr, ptr, %union.anon.90, ptr, ptr, %union.anon.92 }
%union.anon.90 = type { ptr }
%union.anon.92 = type { %struct.TypeFunction }
%struct.TypeFunction = type { ptr, ptr, ptr }

@.str.2 = private unnamed_addr constant [36 x i8] c"FATAL ERROR %s -> in %s @ in %s:%d \00", align 1
@.str.3 = private unnamed_addr constant [22 x i8] c"Should be unreachable\00", align 1
@__func__.llvm_get_debug_type_internal = private unnamed_addr constant [29 x i8] c"llvm_get_debug_type_internal\00", align 1
@.str.4 = private unnamed_addr constant [124 x i8] c"generated/home/dtcxzyw/WorkSpace/Projects/compilers/llvm-opt-benchmark/bench/c3c/c3c/src/compiler/llvm_codegen_debug_info.c\00", align 1

; Function Attrs: nounwind uwtable
define dso_local ptr @llvm_get_debug_type(ptr noundef %0, ptr noundef %1) #0 {
  %3 = alloca ptr, align 8
  %4 = alloca ptr, align 8
  store ptr %0, ptr %3, align 8
  store ptr %1, ptr %4, align 8
  %5 = load ptr, ptr %3, align 8
  %6 = load ptr, ptr %4, align 8
  %7 = load ptr, ptr %3, align 8
  %8 = getelementptr inbounds %struct.GenContext_, ptr %7, i32 0, i32 36
  %9 = getelementptr inbounds %struct.DebugContext, ptr %8, i32 0, i32 3
  %10 = getelementptr inbounds %struct.DebugFile_, ptr %9, i32 0, i32 1
  %11 = load ptr, ptr %10, align 8
  %12 = call ptr @llvm_get_debug_type_internal(ptr noundef %5, ptr noundef %6, ptr noundef %11)
  ret ptr %12
}

; Function Attrs: nounwind uwtable
define internal ptr @llvm_get_debug_type_internal(ptr noundef %0, ptr noundef %1, ptr noundef %2) #0 {
  %4 = alloca ptr, align 8
  %5 = alloca ptr, align 8
  %6 = alloca ptr, align 8
  %7 = alloca ptr, align 8
  %8 = alloca ptr, align 8
  store ptr %0, ptr %5, align 8
  store ptr %1, ptr %6, align 8
  store ptr %2, ptr %7, align 8
  %9 = load ptr, ptr %6, align 8
  %10 = getelementptr inbounds %struct.Type_, ptr %9, i32 0, i32 6
  %11 = load ptr, ptr %10, align 8
  %12 = icmp ne ptr %11, null
  br i1 %12, label %13, label %17

13:                                               ; preds = %3
  %14 = load ptr, ptr %6, align 8
  %15 = getelementptr inbounds %struct.Type_, ptr %14, i32 0, i32 6
  %16 = load ptr, ptr %15, align 8
  store ptr %16, ptr %4, align 8
  br label %146

17:                                               ; preds = %3
  %18 = load ptr, ptr %6, align 8
  %19 = getelementptr inbounds %struct.Type_, ptr %18, i32 0, i32 1
  %20 = load ptr, ptr %19, align 8
  store ptr %20, ptr %8, align 8
  %21 = load ptr, ptr %8, align 8
  %22 = load ptr, ptr %6, align 8
  %23 = icmp ne ptr %21, %22
  br i1 %23, label %24, label %30

24:                                               ; preds = %17
  %25 = load ptr, ptr %5, align 8
  %26 = load ptr, ptr %8, align 8
  %27 = call ptr @llvm_get_debug_type(ptr noundef %25, ptr noundef %26)
  %28 = load ptr, ptr %6, align 8
  %29 = getelementptr inbounds %struct.Type_, ptr %28, i32 0, i32 6
  store ptr %27, ptr %29, align 8
  store ptr %27, ptr %4, align 8
  br label %146

30:                                               ; preds = %17
  %31 = load ptr, ptr %6, align 8
  %32 = getelementptr inbounds %struct.Type_, ptr %31, i32 0, i32 0
  %33 = load i32, ptr %32, align 8
  switch i32 %33, label %144 [
    i32 42, label %34
    i32 36, label %34
    i32 38, label %34
    i32 39, label %34
    i32 0, label %34
    i32 43, label %34
    i32 41, label %34
    i32 28, label %34
    i32 18, label %34
    i32 29, label %37
    i32 40, label %37
    i32 2, label %44
    i32 3, label %48
    i32 8, label %52
    i32 4, label %56
    i32 5, label %56
    i32 6, label %56
    i32 7, label %56
    i32 9, label %60
    i32 10, label %60
    i32 11, label %60
    i32 12, label %60
    i32 13, label %64
    i32 14, label %64
    i32 15, label %64
    i32 16, label %64
    i32 17, label %64
    i32 37, label %68
    i32 1, label %74
    i32 22, label %75
    i32 23, label %81
    i32 24, label %87
    i32 30, label %94
    i32 25, label %101
    i32 26, label %107
    i32 27, label %107
    i32 32, label %114
    i32 31, label %114
    i32 35, label %120
    i32 33, label %120
    i32 34, label %126
    i32 21, label %132
    i32 20, label %138
    i32 19, label %138
  ]

34:                                               ; preds = %30, %30, %30, %30, %30, %30, %30, %30, %30
  br label %35

35:                                               ; preds = %34
  call void (ptr, ...) @error_exit(ptr noundef @.str.2, ptr noundef @.str.3, ptr noundef @__func__.llvm_get_debug_type_internal, ptr noundef @.str.4, i32 noundef 560) #6
  unreachable

36:                                               ; No predecessors!
  br label %37

37:                                               ; preds = %36, %30, %30
  %38 = load ptr, ptr %5, align 8
  %39 = load ptr, ptr %6, align 8
  %40 = call ptr @type_lowering(ptr noundef %39)
  %41 = call ptr @llvm_get_debug_type(ptr noundef %38, ptr noundef %40)
  %42 = load ptr, ptr %6, align 8
  %43 = getelementptr inbounds %struct.Type_, ptr %42, i32 0, i32 6
  store ptr %41, ptr %43, align 8
  store ptr %41, ptr %4, align 8
  br label %146

44:                                               ; preds = %30
  %45 = load ptr, ptr %5, align 8
  %46 = load ptr, ptr %6, align 8
  %47 = call ptr @llvm_debug_simple_type(ptr noundef %45, ptr noundef %46, i32 noundef 2)
  store ptr %47, ptr %4, align 8
  br label %146

48:                                               ; preds = %30
  %49 = load ptr, ptr %5, align 8
  %50 = load ptr, ptr %6, align 8
  %51 = call ptr @llvm_debug_simple_type(ptr noundef %49, ptr noundef %50, i32 noundef 6)
  store ptr %51, ptr %4, align 8
  br label %146

52:                                               ; preds = %30
  %53 = load ptr, ptr %5, align 8
  %54 = load ptr, ptr %6, align 8
  %55 = call ptr @llvm_debug_simple_type(ptr noundef %53, ptr noundef %54, i32 noundef 8)
  store ptr %55, ptr %4, align 8
  br label %146

56:                                               ; preds = %30, %30, %30, %30
  %57 = load ptr, ptr %5, align 8
  %58 = load ptr, ptr %6, align 8
  %59 = call ptr @llvm_debug_simple_type(ptr noundef %57, ptr noundef %58, i32 noundef 5)
  store ptr %59, ptr %4, align 8
  br label %146

60:                                               ; preds = %30, %30, %30, %30
  %61 = load ptr, ptr %5, align 8
  %62 = load ptr, ptr %6, align 8
  %63 = call ptr @llvm_debug_simple_type(ptr noundef %61, ptr noundef %62, i32 noundef 7)
  store ptr %63, ptr %4, align 8
  br label %146

64:                                               ; preds = %30, %30, %30, %30, %30
  %65 = load ptr, ptr %5, align 8
  %66 = load ptr, ptr %6, align 8
  %67 = call ptr @llvm_debug_simple_type(ptr noundef %65, ptr noundef %66, i32 noundef 4)
  store ptr %67, ptr %4, align 8
  br label %146

68:                                               ; preds = %30
  %69 = load ptr, ptr %5, align 8
  %70 = load ptr, ptr %6, align 8
  %71 = call ptr @llvm_debug_vector_type(ptr noundef %69, ptr noundef %70)
  %72 = load ptr, ptr %6, align 8
  %73 = getelementptr inbounds %struct.Type_, ptr %72, i32 0, i32 6
  store ptr %71, ptr %73, align 8
  store ptr %71, ptr %4, align 8
  br label %146

74:                                               ; preds = %30
  store ptr null, ptr %4, align 8
  br label %146

75:                                               ; preds = %30
  %76 = load ptr, ptr %5, align 8
  %77 = load ptr, ptr %6, align 8
  %78 = call ptr @llvm_debug_typeid_type(ptr noundef %76, ptr noundef %77)
  %79 = load ptr, ptr %6, align 8
  %80 = getelementptr inbounds %struct.Type_, ptr %79, i32 0, i32 6
  store ptr %78, ptr %80, align 8
  store ptr %78, ptr %4, align 8
  br label %146

81:                                               ; preds = %30
  %82 = load ptr, ptr %5, align 8
  %83 = load ptr, ptr %6, align 8
  %84 = call ptr @llvm_debug_pointer_type(ptr noundef %82, ptr noundef %83)
  %85 = load ptr, ptr %6, align 8
  %86 = getelementptr inbounds %struct.Type_, ptr %85, i32 0, i32 6
  store ptr %84, ptr %86, align 8
  store ptr %84, ptr %4, align 8
  br label %146

87:                                               ; preds = %30
  %88 = load ptr, ptr %5, align 8
  %89 = load ptr, ptr %6, align 8
  %90 = load ptr, ptr %7, align 8
  %91 = call ptr @llvm_debug_enum_type(ptr noundef %88, ptr noundef %89, ptr noundef %90)
  %92 = load ptr, ptr %6, align 8
  %93 = getelementptr inbounds %struct.Type_, ptr %92, i32 0, i32 6
  store ptr %91, ptr %93, align 8
  store ptr %91, ptr %4, align 8
  br label %146

94:                                               ; preds = %30
  %95 = load ptr, ptr %5, align 8
  %96 = load ptr, ptr %6, align 8
  %97 = load ptr, ptr %7, align 8
  %98 = call ptr @llvm_debug_enum_type(ptr noundef %95, ptr noundef %96, ptr noundef %97)
  %99 = load ptr, ptr %6, align 8
  %100 = getelementptr inbounds %struct.Type_, ptr %99, i32 0, i32 6
  store ptr %98, ptr %100, align 8
  store ptr %98, ptr %4, align 8
  br label %146

101:                                              ; preds = %30
  %102 = load ptr, ptr %5, align 8
  %103 = load ptr, ptr %6, align 8
  %104 = call ptr @llvm_debug_func_type(ptr noundef %102, ptr noundef %103)
  %105 = load ptr, ptr %6, align 8
  %106 = getelementptr inbounds %struct.Type_, ptr %105, i32 0, i32 6
  store ptr %104, ptr %106, align 8
  store ptr %104, ptr %4, align 8
  br label %146

107:                                              ; preds = %30, %30
  %108 = load ptr, ptr %5, align 8
  %109 = load ptr, ptr %6, align 8
  %110 = load ptr, ptr %7, align 8
  %111 = call ptr @llvm_debug_structlike_type(ptr noundef %108, ptr noundef %109, ptr noundef %110)
  %112 = load ptr, ptr %6, align 8
  %113 = getelementptr inbounds %struct.Type_, ptr %112, i32 0, i32 6
  store ptr %111, ptr %113, align 8
  store ptr %111, ptr %4, align 8
  br label %146

114:                                              ; preds = %30, %30
  %115 = load ptr, ptr %5, align 8
  %116 = load ptr, ptr %6, align 8
  %117 = call ptr @llvm_debug_typedef_type(ptr noundef %115, ptr noundef %116)
  %118 = load ptr, ptr %6, align 8
  %119 = getelementptr inbounds %struct.Type_, ptr %118, i32 0, i32 6
  store ptr %117, ptr %119, align 8
  store ptr %117, ptr %4, align 8
  br label %146

120:                                              ; preds = %30, %30
  %121 = load ptr, ptr %5, align 8
  %122 = load ptr, ptr %6, align 8
  %123 = call ptr @llvm_debug_array_type(ptr noundef %121, ptr noundef %122)
  %124 = load ptr, ptr %6, align 8
  %125 = getelementptr inbounds %struct.Type_, ptr %124, i32 0, i32 6
  store ptr %123, ptr %125, align 8
  store ptr %123, ptr %4, align 8
  br label %146

126:                                              ; preds = %30
  %127 = load ptr, ptr %5, align 8
  %128 = load ptr, ptr %6, align 8
  %129 = call ptr @llvm_debug_subarray_type(ptr noundef %127, ptr noundef %128)
  %130 = load ptr, ptr %6, align 8
  %131 = getelementptr inbounds %struct.Type_, ptr %130, i32 0, i32 6
  store ptr %129, ptr %131, align 8
  store ptr %129, ptr %4, align 8
  br label %146

132:                                              ; preds = %30
  %133 = load ptr, ptr %5, align 8
  %134 = load ptr, ptr %6, align 8
  %135 = call ptr @llvm_debug_errunion_type(ptr noundef %133, ptr noundef %134)
  %136 = load ptr, ptr %6, align 8
  %137 = getelementptr inbounds %struct.Type_, ptr %136, i32 0, i32 6
  store ptr %135, ptr %137, align 8
  store ptr %135, ptr %4, align 8
  br label %146

138:                                              ; preds = %30, %30
  %139 = load ptr, ptr %5, align 8
  %140 = load ptr, ptr %6, align 8
  %141 = call ptr @llvm_debug_any_type(ptr noundef %139, ptr noundef %140)
  %142 = load ptr, ptr %6, align 8
  %143 = getelementptr inbounds %struct.Type_, ptr %142, i32 0, i32 6
  store ptr %141, ptr %143, align 8
  store ptr %141, ptr %4, align 8
  br label %146

144:                                              ; preds = %30
  br label %145

145:                                              ; preds = %144
  call void (ptr, ...) @error_exit(ptr noundef @.str.2, ptr noundef @.str.3, ptr noundef @__func__.llvm_get_debug_type_internal, ptr noundef @.str.4, i32 noundef 617) #6
  unreachable

146:                                              ; preds = %138, %132, %126, %120, %114, %107, %101, %94, %87, %81, %75, %74, %68, %64, %60, %56, %52, %48, %44, %37, %24, %13
  %147 = load ptr, ptr %4, align 8
  ret ptr %147
}