; Function Attrs: nounwind uwtable
define internal fastcc ptr @llvm_get_debug_type_internal(ptr nocapture noundef readonly %0, ptr noundef %1, ptr noundef %2) unnamed_addr #0 {
  %4 = getelementptr inbounds i8, ptr %1, i64 48
  %5 = load ptr, ptr %4, align 8
  %.not = icmp eq ptr %5, null
  br i1 %.not, label %6, label %common.ret74

6:                                                ; preds = %3
  %7 = getelementptr inbounds i8, ptr %1, i64 8
  %8 = load ptr, ptr %7, align 8
  %.not67 = icmp eq ptr %8, %1
  br i1 %.not67, label %13, label %9

common.ret74:                                     ; preds = %13, %3, %69, %67, %65, %63, %61, %59, %57, %55, %53, %51, %48, %46, %36, %33, %30, %27, %24, %21, %16, %9
  %common.ret74.op = phi ptr [ %12, %9 ], [ %20, %16 ], [ %70, %69 ], [ %68, %67 ], [ %66, %65 ], [ %64, %63 ], [ %62, %61 ], [ %60, %59 ], [ %58, %57 ], [ %56, %55 ], [ %54, %53 ], [ %52, %51 ], [ %50, %48 ], [ %47, %46 ], [ %45, %36 ], [ %35, %33 ], [ %32, %30 ], [ %29, %27 ], [ %26, %24 ], [ %23, %21 ], [ %5, %3 ], [ null, %13 ]
  ret ptr %common.ret74.op

9:                                                ; preds = %6
  %10 = getelementptr inbounds i8, ptr %0, i64 328
  %11 = load ptr, ptr %10, align 8
  %12 = tail call fastcc ptr @llvm_get_debug_type_internal(ptr noundef %0, ptr noundef %8, ptr noundef %11)
  store ptr %12, ptr %4, align 8
  br label %common.ret74

13:                                               ; preds = %6
  %14 = load i32, ptr %1, align 8
  switch i32 %14, label %71 [
    i32 42, label %15
    i32 36, label %15
    i32 38, label %15
    i32 39, label %15
    i32 0, label %15
    i32 43, label %15
    i32 41, label %15
    i32 28, label %15
    i32 18, label %15
    i32 29, label %16
    i32 40, label %16
    i32 2, label %21
    i32 3, label %24
    i32 8, label %27
    i32 4, label %30
    i32 5, label %30
    i32 6, label %30
    i32 7, label %30
    i32 9, label %33
    i32 10, label %33
    i32 11, label %33
    i32 12, label %33
    i32 13, label %36
    i32 14, label %36
    i32 15, label %36
    i32 16, label %36
    i32 17, label %36
    i32 37, label %46
    i32 1, label %common.ret74
    i32 22, label %48
    i32 23, label %51
    i32 24, label %53
    i32 30, label %55
    i32 25, label %57
    i32 26, label %59
    i32 27, label %59
    i32 32, label %61
    i32 31, label %61
    i32 35, label %63
    i32 33, label %63
    i32 34, label %65
    i32 21, label %67
    i32 20, label %69
    i32 19, label %69
  ]

15:                                               ; preds = %13, %13, %13, %13, %13, %13, %13, %13, %13
  tail call void (ptr, ...) @error_exit(ptr noundef nonnull @.str.2, ptr noundef nonnull @.str.3, ptr noundef nonnull @__func__.llvm_get_debug_type_internal, ptr noundef nonnull @.str.4, i32 noundef 560) #10
  unreachable

16:                                               ; preds = %13, %13
  %17 = tail call fastcc ptr @type_lowering(ptr noundef nonnull %1)
  %18 = getelementptr inbounds i8, ptr %0, i64 328
  %19 = load ptr, ptr %18, align 8
  %20 = tail call fastcc ptr @llvm_get_debug_type_internal(ptr noundef %0, ptr noundef %17, ptr noundef %19)
  store ptr %20, ptr %4, align 8
  br label %common.ret74

21:                                               ; preds = %13
  %22 = getelementptr i8, ptr %0, i64 304
  %.val = load ptr, ptr %22, align 8
  %23 = tail call fastcc ptr @llvm_debug_simple_type(ptr %.val, ptr noundef nonnull %1, i32 noundef 2)
  br label %common.ret74

24:                                               ; preds = %13
  %25 = getelementptr i8, ptr %0, i64 304
  %.val68 = load ptr, ptr %25, align 8
  %26 = tail call fastcc ptr @llvm_debug_simple_type(ptr %.val68, ptr noundef nonnull %1, i32 noundef 6)
  br label %common.ret74

27:                                               ; preds = %13
  %28 = getelementptr i8, ptr %0, i64 304
  %.val69 = load ptr, ptr %28, align 8
  %29 = tail call fastcc ptr @llvm_debug_simple_type(ptr %.val69, ptr noundef nonnull %1, i32 noundef 8)
  br label %common.ret74

30:                                               ; preds = %13, %13, %13, %13
  %31 = getelementptr i8, ptr %0, i64 304
  %.val70 = load ptr, ptr %31, align 8
  %32 = tail call fastcc ptr @llvm_debug_simple_type(ptr %.val70, ptr noundef nonnull %1, i32 noundef 5)
  br label %common.ret74

33:                                               ; preds = %13, %13, %13, %13
  %34 = getelementptr i8, ptr %0, i64 304
  %.val71 = load ptr, ptr %34, align 8
  %35 = tail call fastcc ptr @llvm_debug_simple_type(ptr %.val71, ptr noundef nonnull %1, i32 noundef 7)
  br label %common.ret74

36:                                               ; preds = %13, %13, %13, %13, %13
  %37 = getelementptr i8, ptr %0, i64 304
  %.val72 = load ptr, ptr %37, align 8
  %38 = getelementptr inbounds i8, ptr %1, i64 16
  %39 = load ptr, ptr %38, align 8
  %40 = tail call i64 @strlen(ptr noundef nonnull dereferenceable(1) %39) #9
  %41 = getelementptr inbounds i8, ptr %1, i64 56
  %42 = load i32, ptr %41, align 8
  %43 = and i32 %42, 255
  %44 = zext nneg i32 %43 to i64
  %45 = tail call ptr @LLVMDIBuilderCreateBasicType(ptr noundef %.val72, ptr noundef %39, i64 noundef %40, i64 noundef %44, i32 noundef 4, i32 noundef 0) #8
  store ptr %45, ptr %4, align 8
  br label %common.ret74

46:                                               ; preds = %13
  %47 = tail call fastcc ptr @llvm_debug_vector_type(ptr noundef %0, ptr noundef nonnull %1)
  store ptr %47, ptr %4, align 8
  br label %common.ret74

48:                                               ; preds = %13
  %49 = getelementptr i8, ptr %0, i64 304
  %.val73 = load ptr, ptr %49, align 8
  %50 = tail call fastcc ptr @llvm_debug_typeid_type(ptr %.val73, ptr noundef nonnull %1)
  store ptr %50, ptr %4, align 8
  br label %common.ret74

51:                                               ; preds = %13
  %52 = tail call fastcc ptr @llvm_debug_pointer_type(ptr noundef %0, ptr noundef nonnull %1)
  store ptr %52, ptr %4, align 8
  br label %common.ret74

53:                                               ; preds = %13
  %54 = tail call fastcc ptr @llvm_debug_enum_type(ptr noundef %0, ptr noundef nonnull %1, ptr noundef %2)
  store ptr %54, ptr %4, align 8
  br label %common.ret74

55:                                               ; preds = %13
  %56 = tail call fastcc ptr @llvm_debug_enum_type(ptr noundef %0, ptr noundef nonnull %1, ptr noundef %2)
  store ptr %56, ptr %4, align 8
  br label %common.ret74

57:                                               ; preds = %13
  %58 = tail call fastcc ptr @llvm_debug_func_type(ptr noundef %0, ptr noundef nonnull %1)
  store ptr %58, ptr %4, align 8
  br label %common.ret74

59:                                               ; preds = %13, %13
  %60 = tail call fastcc ptr @llvm_debug_structlike_type(ptr noundef %0, ptr noundef nonnull %1, ptr noundef %2)
  store ptr %60, ptr %4, align 8
  br label %common.ret74

61:                                               ; preds = %13, %13
  %62 = tail call fastcc ptr @llvm_debug_typedef_type(ptr noundef %0, ptr noundef nonnull %1)
  store ptr %62, ptr %4, align 8
  br label %common.ret74

63:                                               ; preds = %13, %13
  %64 = tail call fastcc ptr @llvm_debug_array_type(ptr noundef %0, ptr noundef nonnull %1)
  store ptr %64, ptr %4, align 8
  br label %common.ret74

65:                                               ; preds = %13
  %66 = tail call fastcc ptr @llvm_debug_subarray_type(ptr noundef %0, ptr noundef nonnull %1)
  store ptr %66, ptr %4, align 8
  br label %common.ret74

67:                                               ; preds = %13
  %68 = tail call fastcc ptr @llvm_debug_errunion_type(ptr noundef %0, ptr noundef nonnull %1)
  store ptr %68, ptr %4, align 8
  br label %common.ret74

69:                                               ; preds = %13, %13
  %70 = tail call fastcc ptr @llvm_debug_any_type(ptr noundef %0, ptr noundef nonnull %1)
  store ptr %70, ptr %4, align 8
  br label %common.ret74

71:                                               ; preds = %13
  tail call void (ptr, ...) @error_exit(ptr noundef nonnull @.str.2, ptr noundef nonnull @.str.3, ptr noundef nonnull @__func__.llvm_get_debug_type_internal, ptr noundef nonnull @.str.4, i32 noundef 617) #10
  unreachable
}